; Function Attrs: mustprogress uwtable
define dso_local void @_ZN5ImGui13SeparatorTextEPKc(ptr noundef %0) local_unnamed_addr #5 {
  %2 = load ptr, ptr @GImGui, align 8, !tbaa !4
  %3 = getelementptr inbounds nuw i8, ptr %2, i64 4928
  %4 = load ptr, ptr %3, align 8, !tbaa !9
  %5 = getelementptr inbounds nuw i8, ptr %4, i64 204
  store i8 1, ptr %5, align 4, !tbaa !130
  %6 = getelementptr inbounds nuw i8, ptr %4, i64 207
  %7 = load i8, ptr %6, align 1, !tbaa !151, !range !152, !noundef !153
  %8 = trunc nuw i8 %7 to i1
  br i1 %8, label %11, label %9

9:                                                ; preds = %1
  %10 = tail call noundef ptr @_ZN5ImGui19FindRenderedTextEndEPKcS1_(ptr noundef %0, ptr noundef null)
  tail call void @_ZN5ImGui15SeparatorTextExEjPKcS1_f(i32 noundef 0, ptr noundef %0, ptr noundef %10, float noundef 0.000000e+00)
  br label %11

11:                                               ; preds = %1, %9
  ret void
}